target datalayout = "e-m:e-p270:32:32-p271:32:32-p272:64:64-i64:64-i128:128-f80:128-n8:16:32:64-S128"
target triple = "x86_64-pc-linux-gnu"

%struct.strbuf = type { i64, i64, ptr }
%struct.string_list = type { ptr, i64, i64, i8, ptr }
%struct.date_mode = type { i32, i32, ptr }
%struct.pretty_print_context = type { i32, i32, ptr, i32, %struct.date_mode, i8, i32, i32, ptr, ptr, ptr, ptr, ptr, i32, ptr, i8, ptr, %struct.string_list, i32 }

@the_repository = external global ptr, align 8
@__const.fmt_output_commit.subject = private unnamed_addr constant %struct.strbuf { i64 0, i64 0, ptr @strbuf_slopbuf }, align 8
@.str.10 = private unnamed_addr constant [3 x i8] c"%f\00", align 1

; Function Attrs: nounwind uwtable
define dso_local void @fmt_output_commit(ptr noundef %0, ptr noundef %1, ptr noundef %2) #0 {
  %4 = alloca ptr, align 8
  %5 = alloca ptr, align 8
  %6 = alloca ptr, align 8
  %7 = alloca %struct.pretty_print_context, align 8
  %8 = alloca %struct.strbuf, align 8
  store ptr %0, ptr %4, align 8, !tbaa !57
  store ptr %1, ptr %5, align 8, !tbaa !55
  store ptr %2, ptr %6, align 8, !tbaa !71
  call void @llvm.lifetime.start.p0(i64 176, ptr %7) #10
  call void @llvm.memset.p0.i64(ptr align 8 %7, i8 0, i64 176, i1 false)
  call void @llvm.lifetime.start.p0(i64 24, ptr %8) #10
  call void @llvm.memcpy.p0.p0.i64(ptr align 8 %8, ptr align 8 @__const.fmt_output_commit.subject, i64 24, i1 false)
  %9 = load ptr, ptr @the_repository, align 8, !tbaa !37
  %10 = load ptr, ptr %5, align 8, !tbaa !55
  call void @repo_format_commit_message(ptr noundef %9, ptr noundef %10, ptr noundef @.str.10, ptr noundef %8, ptr noundef %7)
  %11 = load ptr, ptr %4, align 8, !tbaa !57
  %12 = getelementptr inbounds nuw %struct.strbuf, ptr %8, i32 0, i32 2
  %13 = load ptr, ptr %12, align 8, !tbaa !119
  %14 = load ptr, ptr %6, align 8, !tbaa !71
  call void @fmt_output_subject(ptr noundef %11, ptr noundef %13, ptr noundef %14)
  call void @strbuf_release(ptr noundef %8)
  call void @llvm.lifetime.end.p0(i64 24, ptr %8) #10
  call void @llvm.lifetime.end.p0(i64 176, ptr %7) #10
  ret void
}