; Function Attrs: nounwind uwtable
define dso_local void @fmt_output_commit(ptr noundef %0, ptr noundef %1, ptr noundef readonly captures(none) %2) local_unnamed_addr #0 {
  %4 = alloca %struct.pretty_print_context, align 8
  %5 = alloca %struct.strbuf, align 8
  call void @llvm.lifetime.start.p0(i64 176, ptr nonnull %4) #15
  call void @llvm.memset.p0.i64(ptr noundef nonnull align 8 dereferenceable(176) %4, i8 0, i64 176, i1 false)
  call void @llvm.lifetime.start.p0(i64 24, ptr nonnull %5) #15
  call void @llvm.memcpy.p0.p0.i64(ptr noundef nonnull align 8 dereferenceable(24) %5, ptr noundef nonnull align 8 dereferenceable(24) @__const.do_remerge_diff.parent2_desc, i64 24, i1 false)
  %6 = load ptr, ptr @the_repository, align 8, !tbaa !15
  call void @repo_format_commit_message(ptr noundef %6, ptr noundef %1, ptr noundef nonnull @.str.10, ptr noundef nonnull %5, ptr noundef nonnull %4) #15
  %7 = getelementptr inbounds nuw i8, ptr %5, i64 16
  %8 = load ptr, ptr %7, align 8, !tbaa !97
  call void @fmt_output_subject(ptr noundef %0, ptr noundef %8, ptr noundef %2)
  call void @strbuf_release(ptr noundef nonnull %5) #15
  call void @llvm.lifetime.end.p0(i64 24, ptr nonnull %5) #15
  call void @llvm.lifetime.end.p0(i64 176, ptr nonnull %4) #15
  ret void
}